; Function Attrs: mustprogress uwtable
define internal noundef i32 @_ZN7rocksdb12_GLOBAL__N_18PosixEnv10UnScheduleEPvNS_3Env8PriorityE(ptr nocapture noundef nonnull readonly align 8 dereferenceable(200) %this, ptr noundef %arg, i32 noundef %pri) unnamed_addr #3 align 2 {
entry:
  %thread_pools_ = getelementptr inbounds i8, ptr %this, i64 168
  %0 = load ptr, ptr %thread_pools_, align 8
  %conv = zext i32 %pri to i64
  %1 = load ptr, ptr %0, align 8
  %add.ptr.i = getelementptr inbounds %"class.rocksdb::ThreadPoolImpl", ptr %1, i64 %conv
  %call2 = tail call noundef i32 @_ZN7rocksdb14ThreadPoolImpl10UnScheduleEPv(ptr noundef nonnull align 8 dereferenceable(16) %add.ptr.i, ptr noundef %arg)
  ret i32 %call2
}